; Function Attrs: mustprogress uwtable
define void @_ZN6icu_7525NameUnicodeTransliteratorC2ERKS0_(ptr noundef nonnull align 8 dereferenceable(288) %this, ptr noundef nonnull align 8 dereferenceable(288) %o) unnamed_addr #1 align 2 personality ptr @__gxx_personality_v0 {
entry:
  tail call void @_ZN6icu_7514TransliteratorC2ERKS0_(ptr noundef nonnull align 8 dereferenceable(84) %this, ptr noundef nonnull align 8 dereferenceable(84) %o)
  store ptr getelementptr inbounds ({ [19 x ptr] }, ptr @_ZTVN6icu_7525NameUnicodeTransliteratorE, i64 0, i32 0, i64 2), ptr %this, align 8
  %legal = getelementptr inbounds i8, ptr %this, i64 88
  %legal2 = getelementptr inbounds i8, ptr %o, i64 88
  invoke void @_ZN6icu_7510UnicodeSetC1ERKS0_(ptr noundef nonnull align 8 dereferenceable(200) %legal, ptr noundef nonnull align 8 dereferenceable(200) %legal2)
          to label %invoke.cont unwind label %lpad

invoke.cont:                                      ; preds = %entry
  ret void

lpad:                                             ; preds = %entry
  %0 = landingpad { ptr, i32 }
          cleanup
  tail call void @_ZN6icu_7514TransliteratorD2Ev(ptr noundef nonnull align 8 dereferenceable(84) %this) #11
  resume { ptr, i32 } %0
}